target datalayout = "e-m:e-p270:32:32-p271:32:32-p272:64:64-i64:64-i128:128-f80:128-n8:16:32:64-S128"
target triple = "x86_64-unknown-linux-gnu"

%"class.zmq::zmtp_engine_t" = type <{ %"class.zmq::stream_engine_base_t.base", [7 x i8], %"class.zmq::msg_t", %"class.zmq::msg_t", i64, [64 x i8], [64 x i8], i32, i8, [3 x i8], i32, [4 x i8] }>
%"class.zmq::stream_engine_base_t.base" = type <{ %"class.zmq::io_object_t", %"struct.zmq::i_engine", %"struct.zmq::options_t", ptr, i64, ptr, ptr, i64, ptr, ptr, { i64, i64 }, { i64, i64 }, ptr, i8, i8, [6 x i8], %"struct.zmq::endpoint_uri_pair_t", i8, i8, i8, i8, [4 x i8], %"class.std::__cxx11::basic_string", i32, [4 x i8], ptr, i8, i8, [6 x i8], %"class.zmq::msg_t", i8, [7 x i8], ptr, ptr, i8 }>
%"class.zmq::io_object_t" = type { %"struct.zmq::i_poll_events", ptr }
%"struct.zmq::i_poll_events" = type { ptr }
%"struct.zmq::i_engine" = type { ptr }
%"struct.zmq::options_t" = type { i32, i32, i64, i8, [256 x i8], i32, i32, i32, i32, i32, i32, i32, i32, i8, %"struct.zmq::atomic_value_t", i32, i32, i32, i32, i32, i32, i64, i32, i32, i8, i32, i8, i8, i8, i8, i8, %"class.std::__cxx11::basic_string", %"class.std::__cxx11::basic_string", %"class.std::__cxx11::basic_string", i32, i32, i32, i32, %"class.std::vector", %"class.std::set", %"class.std::set", %"class.std::set.6", i32, i32, %"class.std::__cxx11::basic_string", %"class.std::__cxx11::basic_string", %"class.std::__cxx11::basic_string", [32 x i8], [32 x i8], [32 x i8], %"class.std::__cxx11::basic_string", %"class.std::__cxx11::basic_string", i32, i32, i8, i32, i8, i32, i8, i16, i32, i32, i32, %"class.std::__cxx11::basic_string", i8, i8, i8, i32, i32, i8, i32, %"class.std::map", i32, %"class.std::__cxx11::basic_string", %"class.std::__cxx11::basic_string", %"class.std::__cxx11::basic_string", %"class.std::__cxx11::basic_string", i8, %"class.std::vector.21", i8, %"class.std::vector.21", i8, %"class.std::vector.21", i8, i32, i8, i32, i32, i32, i32, i32, i8, i32 }
%"struct.zmq::atomic_value_t" = type { %"struct.std::atomic" }
%"struct.std::atomic" = type { %"struct.std::__atomic_base" }
%"struct.std::__atomic_base" = type { i32 }
%"class.std::vector" = type { %"struct.std::_Vector_base" }
%"struct.std::_Vector_base" = type { %"struct.std::_Vector_base<zmq::tcp_address_mask_t, std::allocator<zmq::tcp_address_mask_t>>::_Vector_impl" }
%"struct.std::_Vector_base<zmq::tcp_address_mask_t, std::allocator<zmq::tcp_address_mask_t>>::_Vector_impl" = type { %"struct.std::_Vector_base<zmq::tcp_address_mask_t, std::allocator<zmq::tcp_address_mask_t>>::_Vector_impl_data" }
%"struct.std::_Vector_base<zmq::tcp_address_mask_t, std::allocator<zmq::tcp_address_mask_t>>::_Vector_impl_data" = type { ptr, ptr, ptr }
%"class.std::set" = type { %"class.std::_Rb_tree" }
%"class.std::_Rb_tree" = type { %"struct.std::_Rb_tree<unsigned int, unsigned int, std::_Identity<unsigned int>, std::less<unsigned int>>::_Rb_tree_impl" }
%"struct.std::_Rb_tree<unsigned int, unsigned int, std::_Identity<unsigned int>, std::less<unsigned int>>::_Rb_tree_impl" = type { %"struct.std::_Rb_tree_key_compare", %"struct.std::_Rb_tree_header" }
%"struct.std::_Rb_tree_key_compare" = type { %"struct.std::less" }
%"struct.std::less" = type { i8 }
%"struct.std::_Rb_tree_header" = type { %"struct.std::_Rb_tree_node_base", i64 }
%"struct.std::_Rb_tree_node_base" = type { i32, ptr, ptr, ptr }
%"class.std::set.6" = type { %"class.std::_Rb_tree.7" }
%"class.std::_Rb_tree.7" = type { %"struct.std::_Rb_tree<int, int, std::_Identity<int>, std::less<int>>::_Rb_tree_impl" }
%"struct.std::_Rb_tree<int, int, std::_Identity<int>, std::less<int>>::_Rb_tree_impl" = type { %"struct.std::_Rb_tree_key_compare.11", %"struct.std::_Rb_tree_header" }
%"struct.std::_Rb_tree_key_compare.11" = type { %"struct.std::less.12" }
%"struct.std::less.12" = type { i8 }
%"class.std::map" = type { %"class.std::_Rb_tree.14" }
%"class.std::_Rb_tree.14" = type { %"struct.std::_Rb_tree<std::__cxx11::basic_string<char>, std::pair<const std::__cxx11::basic_string<char>, std::__cxx11::basic_string<char>>, std::_Select1st<std::pair<const std::__cxx11::basic_string<char>, std::__cxx11::basic_string<char>>>, std::less<std::__cxx11::basic_string<char>>>::_Rb_tree_impl" }
%"struct.std::_Rb_tree<std::__cxx11::basic_string<char>, std::pair<const std::__cxx11::basic_string<char>, std::__cxx11::basic_string<char>>, std::_Select1st<std::pair<const std::__cxx11::basic_string<char>, std::__cxx11::basic_string<char>>>, std::less<std::__cxx11::basic_string<char>>>::_Rb_tree_impl" = type { %"struct.std::_Rb_tree_key_compare.18", %"struct.std::_Rb_tree_header" }
%"struct.std::_Rb_tree_key_compare.18" = type { %"struct.std::less.19" }
%"struct.std::less.19" = type { i8 }
%"class.std::vector.21" = type { %"struct.std::_Vector_base.22" }
%"struct.std::_Vector_base.22" = type { %"struct.std::_Vector_base<unsigned char, std::allocator<unsigned char>>::_Vector_impl" }
%"struct.std::_Vector_base<unsigned char, std::allocator<unsigned char>>::_Vector_impl" = type { %"struct.std::_Vector_base<unsigned char, std::allocator<unsigned char>>::_Vector_impl_data" }
%"struct.std::_Vector_base<unsigned char, std::allocator<unsigned char>>::_Vector_impl_data" = type { ptr, ptr, ptr }
%"struct.zmq::endpoint_uri_pair_t" = type <{ %"class.std::__cxx11::basic_string", %"class.std::__cxx11::basic_string", i32, [4 x i8] }>
%"class.std::__cxx11::basic_string" = type { %"struct.std::__cxx11::basic_string<char>::_Alloc_hider", i64, %union.anon }
%"struct.std::__cxx11::basic_string<char>::_Alloc_hider" = type { ptr }
%union.anon = type { i64, [8 x i8] }
%"class.zmq::msg_t" = type { %union.anon.26 }
%union.anon.26 = type { %struct.anon }
%struct.anon = type { ptr, [34 x i8], i8, i8, i32, %"union.zmq::msg_t::group_t" }
%"union.zmq::msg_t::group_t" = type { %struct.anon.28 }
%struct.anon.28 = type { i8, ptr }
%"class.zmq::stream_engine_base_t" = type <{ %"class.zmq::io_object_t", %"struct.zmq::i_engine", %"struct.zmq::options_t", ptr, i64, ptr, ptr, i64, ptr, ptr, { i64, i64 }, { i64, i64 }, ptr, i8, i8, [6 x i8], %"struct.zmq::endpoint_uri_pair_t", i8, i8, i8, i8, [4 x i8], %"class.std::__cxx11::basic_string", i32, [4 x i8], ptr, i8, i8, [6 x i8], %"class.zmq::msg_t", i8, [7 x i8], ptr, ptr, i8, [7 x i8] }>

@stderr = external global ptr, align 8
@.str = private unnamed_addr constant [12 x i8] c"%s (%s:%d)\0A\00", align 1
@.str.1 = private unnamed_addr constant [111 x i8] c"generated/home/dtcxzyw/WorkSpace/Projects/compilers/llvm-opt-benchmark/bench/libzmq/libzmq/src/zmtp_engine.cpp\00", align 1
@.str.17 = private unnamed_addr constant [6 x i8] c"\04PONG\00", align 1

; Function Attrs: mustprogress nounwind uwtable
define linkonce_odr noundef nonnull align 8 dereferenceable(8) ptr @_ZSt3minImERKT_S2_S2_(ptr noundef nonnull align 8 dereferenceable(8) %__a, ptr noundef nonnull align 8 dereferenceable(8) %__b) #4 comdat {
entry:
  %retval = alloca ptr, align 8
  %__a.addr = alloca ptr, align 8
  %__b.addr = alloca ptr, align 8
  store ptr %__a, ptr %__a.addr, align 8
  store ptr %__b, ptr %__b.addr, align 8
  %0 = load ptr, ptr %__b.addr, align 8
  %1 = load i64, ptr %0, align 8
  %2 = load ptr, ptr %__a.addr, align 8
  %3 = load i64, ptr %2, align 8
  %cmp = icmp ult i64 %1, %3
  br i1 %cmp, label %if.then, label %if.end

if.then:                                          ; preds = %entry
  %4 = load ptr, ptr %__b.addr, align 8
  store ptr %4, ptr %retval, align 8
  br label %return

if.end:                                           ; preds = %entry
  %5 = load ptr, ptr %__a.addr, align 8
  store ptr %5, ptr %retval, align 8
  br label %return

return:                                           ; preds = %if.end, %if.then
  %6 = load ptr, ptr %retval, align 8
  ret ptr %6
}

; Function Attrs: mustprogress uwtable
define noundef i32 @_ZN3zmq13zmtp_engine_t25process_heartbeat_messageEPNS_5msg_tE(ptr noundef nonnull align 8 dereferenceable(1976) %this, ptr noundef %msg_) unnamed_addr #0 align 2 {
entry:
  %this.addr = alloca ptr, align 8
  %msg_.addr = alloca ptr, align 8
  %ping_ttl_len = alloca i64, align 8
  %ping_max_ctx_len = alloca i64, align 8
  %remote_heartbeat_ttl = alloca i16, align 2
  %context_len = alloca i64, align 8
  %ref.tmp = alloca i64, align 8
  %rc = alloca i32, align 4
  %errstr = alloca ptr, align 8
  store ptr %this, ptr %this.addr, align 8
  store ptr %msg_, ptr %msg_.addr, align 8
  %this1 = load ptr, ptr %this.addr, align 8
  %0 = load ptr, ptr %msg_.addr, align 8
  %call = call noundef zeroext i1 @_ZNK3zmq5msg_t7is_pingEv(ptr noundef nonnull align 8 dereferenceable(64) %0)
  br i1 %call, label %if.then, label %if.end31

if.then:                                          ; preds = %entry
  store i64 7, ptr %ping_ttl_len, align 8
  store i64 16, ptr %ping_max_ctx_len, align 8
  %1 = load ptr, ptr %msg_.addr, align 8
  %call2 = call noundef ptr @_ZN3zmq5msg_t4dataEv(ptr noundef nonnull align 8 dereferenceable(64) %1)
  %add.ptr = getelementptr inbounds i8, ptr %call2, i64 5
  call void @llvm.memcpy.p0.p0.i64(ptr align 2 %remote_heartbeat_ttl, ptr align 1 %add.ptr, i64 2, i1 false)
  %2 = load i16, ptr %remote_heartbeat_ttl, align 2
  %call3 = call zeroext i16 @ntohs(i16 noundef zeroext %2) #13
  store i16 %call3, ptr %remote_heartbeat_ttl, align 2
  %3 = load i16, ptr %remote_heartbeat_ttl, align 2
  %conv = zext i16 %3 to i32
  %mul = mul nsw i32 %conv, 100
  %conv4 = trunc i32 %mul to i16
  store i16 %conv4, ptr %remote_heartbeat_ttl, align 2
  %_has_ttl_timer = getelementptr inbounds %"class.zmq::stream_engine_base_t", ptr %this1, i32 0, i32 18
  %4 = load i8, ptr %_has_ttl_timer, align 1
  %tobool = trunc i8 %4 to i1
  br i1 %tobool, label %if.end, label %land.lhs.true

land.lhs.true:                                    ; preds = %if.then
  %5 = load i16, ptr %remote_heartbeat_ttl, align 2
  %conv5 = zext i16 %5 to i32
  %cmp = icmp sgt i32 %conv5, 0
  br i1 %cmp, label %if.then6, label %if.end

if.then6:                                         ; preds = %land.lhs.true
  %6 = load i16, ptr %remote_heartbeat_ttl, align 2
  %conv7 = zext i16 %6 to i32
  call void @_ZN3zmq11io_object_t9add_timerEii(ptr noundef nonnull align 8 dereferenceable(16) %this1, i32 noundef %conv7, i32 noundef 130)
  %_has_ttl_timer8 = getelementptr inbounds %"class.zmq::stream_engine_base_t", ptr %this1, i32 0, i32 18
  store i8 1, ptr %_has_ttl_timer8, align 1
  br label %if.end

if.end:                                           ; preds = %if.then6, %land.lhs.true, %if.then
  %7 = load ptr, ptr %msg_.addr, align 8
  %call9 = call noundef i64 @_ZNK3zmq5msg_t4sizeEv(ptr noundef nonnull align 8 dereferenceable(64) %7)
  %sub = sub i64 %call9, 7
  store i64 %sub, ptr %ref.tmp, align 8
  %call10 = call noundef nonnull align 8 dereferenceable(8) ptr @_ZSt3minImERKT_S2_S2_(ptr noundef nonnull align 8 dereferenceable(8) %ref.tmp, ptr noundef nonnull align 8 dereferenceable(8) %ping_max_ctx_len)
  %8 = load i64, ptr %call10, align 8
  store i64 %8, ptr %context_len, align 8
  %_pong_msg = getelementptr inbounds %"class.zmq::zmtp_engine_t", ptr %this1, i32 0, i32 3
  %9 = load i64, ptr %context_len, align 8
  %add = add i64 5, %9
  %call11 = call noundef i32 @_ZN3zmq5msg_t9init_sizeEm(ptr noundef nonnull align 8 dereferenceable(64) %_pong_msg, i64 noundef %add)
  store i32 %call11, ptr %rc, align 4
  br label %do.body

do.body:                                          ; preds = %if.end
  %10 = load i32, ptr %rc, align 4
  %cmp12 = icmp eq i32 %10, 0
  %lnot = xor i1 %cmp12, true
  br i1 %lnot, label %if.then14, label %if.end19

if.then14:                                        ; preds = %do.body
  %call15 = call ptr @__errno_location() #13
  %11 = load i32, ptr %call15, align 4
  %call16 = call ptr @strerror(i32 noundef %11) #14
  store ptr %call16, ptr %errstr, align 8
  %12 = load ptr, ptr @stderr, align 8
  %13 = load ptr, ptr %errstr, align 8
  %call17 = call i32 (ptr, ptr, ...) @fprintf(ptr noundef %12, ptr noundef @.str, ptr noundef %13, ptr noundef @.str.1, i32 noundef 516)
  %14 = load ptr, ptr @stderr, align 8
  %call18 = call i32 @fflush(ptr noundef %14)
  %15 = load ptr, ptr %errstr, align 8
  call void @_ZN3zmq9zmq_abortEPKc(ptr noundef %15)
  br label %if.end19

if.end19:                                         ; preds = %if.then14, %do.body
  br label %do.end

do.end:                                           ; preds = %if.end19
  %_pong_msg20 = getelementptr inbounds %"class.zmq::zmtp_engine_t", ptr %this1, i32 0, i32 3
  call void @_ZN3zmq5msg_t9set_flagsEh(ptr noundef nonnull align 8 dereferenceable(64) %_pong_msg20, i8 noundef zeroext 2)
  %_pong_msg21 = getelementptr inbounds %"class.zmq::zmtp_engine_t", ptr %this1, i32 0, i32 3
  %call22 = call noundef ptr @_ZN3zmq5msg_t4dataEv(ptr noundef nonnull align 8 dereferenceable(64) %_pong_msg21)
  call void @llvm.memcpy.p0.p0.i64(ptr align 1 %call22, ptr align 1 @.str.17, i64 5, i1 false)
  %16 = load i64, ptr %context_len, align 8
  %cmp23 = icmp ugt i64 %16, 0
  br i1 %cmp23, label %if.then24, label %if.end30

if.then24:                                        ; preds = %do.end
  %_pong_msg25 = getelementptr inbounds %"class.zmq::zmtp_engine_t", ptr %this1, i32 0, i32 3
  %call26 = call noundef ptr @_ZN3zmq5msg_t4dataEv(ptr noundef nonnull align 8 dereferenceable(64) %_pong_msg25)
  %add.ptr27 = getelementptr inbounds i8, ptr %call26, i64 5
  %17 = load ptr, ptr %msg_.addr, align 8
  %call28 = call noundef ptr @_ZN3zmq5msg_t4dataEv(ptr noundef nonnull align 8 dereferenceable(64) %17)
  %add.ptr29 = getelementptr inbounds i8, ptr %call28, i64 7
  %18 = load i64, ptr %context_len, align 8
  call void @llvm.memcpy.p0.p0.i64(ptr align 1 %add.ptr27, ptr align 1 %add.ptr29, i64 %18, i1 false)
  br label %if.end30

if.end30:                                         ; preds = %if.then24, %do.end
  %_next_msg = getelementptr inbounds %"class.zmq::stream_engine_base_t", ptr %this1, i32 0, i32 10
  store { i64, i64 } { i64 153, i64 0 }, ptr %_next_msg, align 8
  call void @_ZN3zmq20stream_engine_base_t9out_eventEv(ptr noundef nonnull align 8 dereferenceable(1689) %this1)
  br label %if.end31

if.end31:                                         ; preds = %if.end30, %entry
  ret i32 0
}