; Function Attrs: mustprogress uwtable
define noundef i32 @_ZN3zmq13zmtp_engine_t25process_heartbeat_messageEPNS_5msg_tE(ptr noundef nonnull align 8 dereferenceable(1976) %this, ptr noundef nonnull %msg_) unnamed_addr #0 align 2 {
entry:
  %call = tail call noundef zeroext i1 @_ZNK3zmq5msg_t7is_pingEv(ptr noundef nonnull align 8 dereferenceable(64) %msg_)
  br i1 %call, label %if.then, label %if.end31

if.then:                                          ; preds = %entry
  %call2 = tail call noundef ptr @_ZN3zmq5msg_t4dataEv(ptr noundef nonnull align 8 dereferenceable(64) %msg_)
  %add.ptr = getelementptr inbounds i8, ptr %call2, i64 5
  %remote_heartbeat_ttl.0.copyload = load i16, ptr %add.ptr, align 1
  %call3 = tail call zeroext i16 @ntohs(i16 noundef zeroext %remote_heartbeat_ttl.0.copyload) #16
  %mul = mul i16 %call3, 100
  %_has_ttl_timer = getelementptr inbounds i8, ptr %this, i64 1537
  %0 = load i8, ptr %_has_ttl_timer, align 1
  %1 = and i8 %0, 1
  %tobool.not10 = icmp eq i8 %1, 0
  %cmp = icmp ne i16 %mul, 0
  %or.cond = select i1 %tobool.not10, i1 %cmp, i1 false
  br i1 %or.cond, label %if.then6, label %if.end

if.then6:                                         ; preds = %if.then
  %conv5 = zext i16 %mul to i32
  tail call void @_ZN3zmq11io_object_t9add_timerEii(ptr noundef nonnull align 8 dereferenceable(16) %this, i32 noundef %conv5, i32 noundef 130)
  store i8 1, ptr %_has_ttl_timer, align 1
  br label %if.end

if.end:                                           ; preds = %if.then6, %if.then
  %call9 = tail call noundef i64 @_ZNK3zmq5msg_t4sizeEv(ptr noundef nonnull align 8 dereferenceable(64) %msg_)
  %sub = add i64 %call9, -7
  %.sroa.speculated = tail call i64 @llvm.umin.i64(i64 %sub, i64 16)
  %_pong_msg = getelementptr inbounds i8, ptr %this, i64 1760
  %add = add nuw nsw i64 %.sroa.speculated, 5
  %call11 = tail call noundef i32 @_ZN3zmq5msg_t9init_sizeEm(ptr noundef nonnull align 8 dereferenceable(64) %_pong_msg, i64 noundef %add)
  %cmp12.not = icmp eq i32 %call11, 0
  br i1 %cmp12.not, label %do.end, label %if.then14

if.then14:                                        ; preds = %if.end
  %call15 = tail call ptr @__errno_location() #16
  %2 = load i32, ptr %call15, align 4
  %call16 = tail call ptr @strerror(i32 noundef %2) #17
  %3 = load ptr, ptr @stderr, align 8
  %call17 = tail call i32 (ptr, ptr, ...) @fprintf(ptr noundef %3, ptr noundef nonnull @.str, ptr noundef %call16, ptr noundef nonnull @.str.1, i32 noundef 516) #18
  %4 = load ptr, ptr @stderr, align 8
  %call18 = tail call i32 @fflush(ptr noundef %4)
  tail call void @_ZN3zmq9zmq_abortEPKc(ptr noundef %call16)
  br label %do.end

do.end:                                           ; preds = %if.end, %if.then14
  tail call void @_ZN3zmq5msg_t9set_flagsEh(ptr noundef nonnull align 8 dereferenceable(64) %_pong_msg, i8 noundef zeroext 2)
  %call22 = tail call noundef ptr @_ZN3zmq5msg_t4dataEv(ptr noundef nonnull align 8 dereferenceable(64) %_pong_msg)
  tail call void @llvm.memcpy.p0.p0.i64(ptr noundef nonnull align 1 dereferenceable(5) %call22, ptr noundef nonnull align 1 dereferenceable(5) @.str.17, i64 5, i1 false)
  %cmp23.not = icmp eq i64 %sub, 0
  br i1 %cmp23.not, label %if.end30, label %if.then24

if.then24:                                        ; preds = %do.end
  %call26 = tail call noundef ptr @_ZN3zmq5msg_t4dataEv(ptr noundef nonnull align 8 dereferenceable(64) %_pong_msg)
  %add.ptr27 = getelementptr inbounds i8, ptr %call26, i64 5
  %call28 = tail call noundef ptr @_ZN3zmq5msg_t4dataEv(ptr noundef nonnull align 8 dereferenceable(64) %msg_)
  %add.ptr29 = getelementptr inbounds i8, ptr %call28, i64 7
  tail call void @llvm.memcpy.p0.p0.i64(ptr nonnull align 1 %add.ptr27, ptr nonnull align 1 %add.ptr29, i64 %.sroa.speculated, i1 false)
  br label %if.end30

if.end30:                                         ; preds = %if.then24, %do.end
  %_next_msg = getelementptr inbounds i8, ptr %this, i64 1416
  store i64 153, ptr %_next_msg, align 8
  %_next_msg.repack11 = getelementptr inbounds i8, ptr %this, i64 1424
  store i64 0, ptr %_next_msg.repack11, align 8
  tail call void @_ZN3zmq20stream_engine_base_t9out_eventEv(ptr noundef nonnull align 8 dereferenceable(1689) %this)
  br label %if.end31

if.end31:                                         ; preds = %if.end30, %entry
  ret i32 0
}